; Function Attrs: nofree norecurse nosync nounwind memory(read, inaccessiblemem: none) uwtable
define dso_local noundef zeroext i1 @str_is_valid_constant(ptr nocapture noundef readonly %0) local_unnamed_addr #2 {
  br label %2

2:                                                ; preds = %4, %1
  %.0.i = phi ptr [ %0, %1 ], [ %5, %4 ]
  %3 = load i8, ptr %.0.i, align 1
  switch i8 %3, label %scan_past_underscore.exit [
    i8 95, label %4
    i8 0, label %scan_past_underscore.exit.thread
  ]

4:                                                ; preds = %2
  %5 = getelementptr inbounds i8, ptr %.0.i, i64 1
  br label %2, !llvm.loop !12

scan_past_underscore.exit:                        ; preds = %2
  %6 = add i8 %3, -65
  %7 = icmp ult i8 %6, 26
  br i1 %7, label %.preheader, label %scan_past_underscore.exit.thread

.preheader:                                       ; preds = %scan_past_underscore.exit, %.preheader.backedge
  %.pn = phi ptr [ %.0, %.preheader.backedge ], [ %.0.i, %scan_past_underscore.exit ]
  %.0 = getelementptr inbounds i8, ptr %.pn, i64 1
  %8 = load i8, ptr %.0, align 1
  switch i8 %8, label %scan_past_underscore.exit.thread [
    i8 0, label %scan_past_underscore.exit.thread.loopexit
    i8 65, label %.preheader.backedge
    i8 66, label %.preheader.backedge
    i8 67, label %.preheader.backedge
    i8 68, label %.preheader.backedge
    i8 69, label %.preheader.backedge
    i8 70, label %.preheader.backedge
    i8 71, label %.preheader.backedge
    i8 72, label %.preheader.backedge
    i8 73, label %.preheader.backedge
    i8 74, label %.preheader.backedge
    i8 75, label %.preheader.backedge
    i8 76, label %.preheader.backedge
    i8 77, label %.preheader.backedge
    i8 78, label %.preheader.backedge
    i8 79, label %.preheader.backedge
    i8 80, label %.preheader.backedge
    i8 81, label %.preheader.backedge
    i8 82, label %.preheader.backedge
    i8 83, label %.preheader.backedge
    i8 84, label %.preheader.backedge
    i8 85, label %.preheader.backedge
    i8 86, label %.preheader.backedge
    i8 87, label %.preheader.backedge
    i8 88, label %.preheader.backedge
    i8 89, label %.preheader.backedge
    i8 90, label %.preheader.backedge
    i8 48, label %.preheader.backedge
    i8 49, label %.preheader.backedge
    i8 50, label %.preheader.backedge
    i8 51, label %.preheader.backedge
    i8 52, label %.preheader.backedge
    i8 53, label %.preheader.backedge
    i8 54, label %.preheader.backedge
    i8 55, label %.preheader.backedge
    i8 56, label %.preheader.backedge
    i8 57, label %.preheader.backedge
    i8 95, label %.preheader.backedge
  ]

.preheader.backedge:                              ; preds = %.preheader, %.preheader, %.preheader, %.preheader, %.preheader, %.preheader, %.preheader, %.preheader, %.preheader, %.preheader, %.preheader, %.preheader, %.preheader, %.preheader, %.preheader, %.preheader, %.preheader, %.preheader, %.preheader, %.preheader, %.preheader, %.preheader, %.preheader, %.preheader, %.preheader, %.preheader, %.preheader, %.preheader, %.preheader, %.preheader, %.preheader, %.preheader, %.preheader, %.preheader, %.preheader, %.preheader, %.preheader
  br label %.preheader, !llvm.loop !16

scan_past_underscore.exit.thread.loopexit:        ; preds = %.preheader
  br label %scan_past_underscore.exit.thread

scan_past_underscore.exit.thread:                 ; preds = %2, %.preheader, %scan_past_underscore.exit.thread.loopexit, %scan_past_underscore.exit
  %.06 = phi i1 [ false, %scan_past_underscore.exit ], [ true, %scan_past_underscore.exit.thread.loopexit ], [ false, %.preheader ], [ false, %2 ]
  ret i1 %.06
}